Certificate Request:
    Data:
        Version: 0 (0x0)
        Subject: C=FR, ST=IDF, L=Paris, O=Local NODE-OPCUA Certificate Authority, CN=NodeOPCUA-CA
        Subject Public Key Info:
            Public Key Algorithm: rsaEncryption
                Public-Key: (2048 bit)
                Modulus:
                    00:c1:d3:5d:fb:6e:b7:13:06:7d:8f:77:7f:5a:e9:
                    2a:e4:62:99:f9:92:0a:7f:47:95:bd:d6:2f:f4:40:
                    58:e4:88:c6:22:74:ab:bf:1a:9e:bf:64:7f:f0:c1:
                    6c:46:57:8c:64:1d:8f:30:bb:5d:6c:a0:5b:99:da:
                    9c:ac:62:8b:65:11:14:3e:ff:d4:2b:41:38:d4:5a:
                    e9:f4:5e:35:f4:ca:f2:07:0b:d2:ea:c8:3b:ad:61:
                    7c:b6:16:c8:fd:51:3f:19:96:ef:93:5b:78:13:6d:
                    ee:d3:ae:14:9a:c8:61:68:4e:ee:15:1a:d9:b3:1e:
                    c5:3c:69:8b:73:4e:e2:48:fd:9b:89:52:9d:29:73:
                    1e:3c:f2:ff:de:3c:b8:06:bf:73:6a:eb:a3:e8:57:
                    f2:a6:ad:ae:60:4b:61:22:cb:1c:15:25:6b:ad:0e:
                    18:41:09:52:ea:c5:ad:f1:0f:e4:86:8d:fd:c1:b0:
                    ef:11:b4:d4:dc:24:bf:13:91:e6:c7:11:93:5c:6c:
                    95:71:37:a5:7a:02:88:a8:45:25:58:b5:85:f8:af:
                    0d:ff:6d:2f:1f:b4:99:29:18:57:a4:c6:87:ec:61:
                    da:a8:00:94:0f:f8:3d:aa:23:00:ea:9e:53:12:7f:
                    05:2a:2a:92:75:71:76:9e:c2:29:5e:cf:8e:32:21:
                    e0:eb
                Exponent: 65537 (0x10001)
        Attributes:
        Requested Extensions:
            X509v3 Basic Constraints: critical
                CA:FALSE
            X509v3 Key Usage: 
                Digital Signature, Non Repudiation, Key Encipherment, Data Encipherment, Key Agreement
            X509v3 Extended Key Usage: critical
                TLS Web Server Authentication, TLS Web Client Authentication
            X509v3 Subject Alternative Name: 
                URI:undefined
            Netscape Comment: 
                CA Generated by Node-OPCUA Certificate utility using openssl
    Signature Algorithm: sha256WithRSAEncryption
         93:52:f0:28:dd:81:5b:44:65:d9:2c:95:7b:f8:10:68:96:86:
         0c:46:d5:e8:f3:48:23:f4:ed:8d:50:66:f9:36:2b:df:4e:1e:
         90:04:61:b0:8c:b6:9b:d2:b3:e8:d3:5f:b2:5e:58:e4:15:ab:
         95:4c:3f:97:ad:85:0a:08:44:1c:b3:d3:e8:fd:95:ac:33:6c:
         f0:b8:99:6a:56:5e:d5:a3:3d:6c:02:52:a0:a3:2d:25:e8:d0:
         24:f6:b7:53:b0:ea:e1:4c:26:ea:b3:93:36:20:a5:b9:02:c8:
         c6:f2:33:ba:40:df:43:bd:bc:f1:e9:03:bc:02:27:34:8a:d9:
         01:ca:42:36:80:f7:d2:19:95:fc:ad:34:09:04:e2:78:0d:c9:
         85:20:e1:3d:9f:c5:da:9b:57:95:2d:f1:77:12:1d:90:2f:53:
         d3:f8:f5:ed:2b:25:82:36:c6:77:28:ec:ee:05:a4:f9:3c:d4:
         74:b7:d4:af:dc:a5:55:ea:e8:b8:f8:c6:48:84:11:40:ef:b8:
         9e:23:d7:4b:4e:99:fc:4c:63:a8:32:43:22:c9:ca:e4:a9:9a:
         88:2b:6b:f9:69:42:db:dc:04:20:4c:71:cd:77:c6:0a:98:8a:
         dd:f6:c5:71:74:f0:e4:5b:82:ff:fc:6f:a3:cd:9c:f2:65:4a:
         33:2c:80:86
-----BEGIN CERTIFICATE REQUEST-----
MIIDbTCCAlUCAQAwczELMAkGA1UEBhMCRlIxDDAKBgNVBAgTA0lERjEOMAwGA1UE
BxMFUGFyaXMxLzAtBgNVBAoTJkxvY2FsIE5PREUtT1BDVUEgQ2VydGlmaWNhdGUg
QXV0aG9yaXR5MRUwEwYDVQQDEwxOb2RlT1BDVUEtQ0EwggEiMA0GCSqGSIb3DQEB
AQUAA4IBDwAwggEKAoIBAQDB0137brcTBn2Pd39a6SrkYpn5kgp/R5W91i/0QFjk
iMYidKu/Gp6/ZH/wwWxGV4xkHY8wu11soFuZ2pysYotlERQ+/9QrQTjUWun0XjX0
yvIHC9LqyDutYXy2Fsj9UT8Zlu+TW3gTbe7TrhSayGFoTu4VGtmzHsU8aYtzTuJI
/ZuJUp0pcx488v/ePLgGv3Nq66PoV/Kmra5gS2EiyxwVJWutDhhBCVLqxa3xD+SG
jf3BsO8RtNTcJL8TkebHEZNcbJVxN6V6AoioRSVYtYX4rw3/bS8ftJkpGFekxofs
YdqoAJQP+D2qIwDqnlMSfwUqKpJ1cXaewilez44yIeDrAgMBAAGggbQwgbEGCSqG
SIb3DQEJDjGBozCBoDAMBgNVHRMBAf8EAjAAMAsGA1UdDwQEAwID+DAgBgNVHSUB
Af8EFjAUBggrBgEFBQcDAQYIKwYBBQUHAwIwFAYDVR0RBA0wC4YJdW5kZWZpbmVk
MEsGCWCGSAGG+EIBDQQ+FjxDQSBHZW5lcmF0ZWQgYnkgTm9kZS1PUENVQSBDZXJ0
aWZpY2F0ZSB1dGlsaXR5IHVzaW5nIG9wZW5zc2wwDQYJKoZIhvcNAQELBQADggEB
AJNS8CjdgVtEZdkslXv4EGiWhgxG1ejzSCP07Y1QZvk2K99OHpAEYbCMtpvSs+jT
X7JeWOQVq5VMP5ethQoIRByz0+j9lawzbPC4mWpWXtWjPWwCUqCjLSXo0CT2t1Ow
6uFMJuqzkzYgpbkCyMbyM7pA30O9vPHpA7wCJzSK2QHKQjaA99IZlfytNAkE4ngN
yYUg4T2fxdqbV5Ut8XcSHZAvU9P49e0rJYI2xnco7O4FpPk81HS31K/cpVXq6Lj4
xkiEEUDvuJ4j10tOmfxMY6gyQyLJyuSpmogra/lpQtvcBCBMcc13xgqYit32xXF0
8ORbgv/8b6PNnPJlSjMsgIY=
-----END CERTIFICATE REQUEST-----
